Certificate:
    Data:
        Version: 3 (0x2)
        Serial Number: 6 (0x6)
    Signature Algorithm: sha1WithRSAEncryption
        Issuer: C=BA, ST=RS, L=Banja Luka, O=ETF, OU=CA_MiroslavMandic, CN=Miroslav/emailAddress=miso@gmail.com\
        Validity
            Not Before: May 14 08:58:40 2018 GMT
            Not After : Aug 22 08:58:40 2018 GMT
        Subject: O=ETF, OU=CA_MiroslavMandic, CN=1/emailAddress=1@gmail.com
        Subject Public Key Info:
            Public Key Algorithm: rsaEncryption
                Public-Key: (2048 bit)
                Modulus:
                    00:96:ed:cb:02:44:25:06:a8:70:4a:0f:53:c9:02:
                    91:31:42:b5:43:99:96:94:7d:2f:48:0d:db:73:af:
                    25:eb:09:4a:4a:f7:9d:d6:ce:f7:70:4c:4f:73:c5:
                    28:90:ae:c0:b6:19:01:38:f6:7e:66:80:01:70:1e:
                    53:52:37:1a:92:22:e7:a3:1e:16:89:2d:90:22:74:
                    07:69:4e:32:99:f2:c6:92:47:4f:3e:97:5b:58:6b:
                    c1:fb:a0:9f:23:c3:ed:4a:06:78:7b:94:80:34:0b:
                    51:31:72:7a:29:81:ac:9d:7d:d1:66:a8:73:69:39:
                    e7:21:19:d1:70:3e:9c:24:98:bf:0e:69:60:fc:05:
                    70:9f:1b:5b:b6:14:9b:92:4d:e6:f6:61:97:69:79:
                    76:88:b6:9e:7e:e1:1c:e2:94:12:ca:88:7e:34:20:
                    48:45:93:ea:ca:34:c4:b7:0d:9d:38:4f:ba:e5:c9:
                    43:65:01:37:4c:c9:b0:f2:10:63:4c:fa:5d:98:6b:
                    5b:c2:58:bb:72:ae:e3:8b:04:f7:02:a3:f4:2d:26:
                    07:30:ee:12:92:92:0d:ea:40:bc:99:ba:8f:9b:52:
                    b6:11:d2:b7:d3:e7:65:ee:63:9a:0c:38:2a:6d:03:
                    99:e0:83:c9:9f:ab:c2:85:8c:8e:17:bd:7d:28:bd:
                    56:53
                Exponent: 65537 (0x10001)
        X509v3 extensions:
            X509v3 Basic Constraints: 
                CA:FALSE
            X509v3 Extended Key Usage: 
                TLS Web Client Authentication
            Netscape Comment: 
                OpenSSL Generated Certificate
            X509v3 Subject Key Identifier: 
                BB:4F:FF:C7:28:C6:19:CD:9E:E5:63:13:07:5C:58:25:8C:8B:35:21
            X509v3 Authority Key Identifier: 
                keyid:80:18:C4:71:71:53:02:25:50:91:58:D7:9C:2A:69:84:CE:27:7B:1B

            X509v3 CRL Distribution Points: 

                Full Name:
                  URI:http://192.168.21.89/rootcrl.pem

    Signature Algorithm: sha1WithRSAEncryption
         88:5a:85:e2:8c:87:32:9d:10:9d:33:98:f7:b3:c1:08:e8:04:
         67:a2:08:c3:e2:30:71:a1:22:ec:ba:77:ef:5f:d2:3e:27:7f:
         15:88:36:21:65:a9:93:d1:ba:f0:af:c9:bd:ee:c5:73:97:d2:
         c0:b6:d6:93:6f:4d:6d:03:56:d7:c5:82:e5:3f:5c:45:0d:cd:
         ad:ef:18:d6:43:9b:79:60:68:69:4e:77:42:1c:b9:11:6a:2b:
         aa:82:e0:35:37:c4:a3:65:36:98:a9:ce:9b:17:41:52:59:a0:
         e7:8f:28:d9:19:5f:ae:b9:9c:64:cd:63:3c:30:82:4c:ce:04:
         5c:fc:45:4a:88:bc:04:51:89:8f:6e:da:b3:d9:11:f7:58:d1:
         f0:98:71:d0:45:1c:ef:0f:a1:9e:16:47:e6:da:78:ae:c6:d5:
         95:ee:e0:5b:1a:a3:7a:03:40:28:a0:ba:58:42:88:ed:62:63:
         52:62:bb:ba:9e:a9:dc:6e:ef:93:7d:49:64:ed:4b:98:f9:7e:
         1b:a7:35:e5:af:68:7b:88:ba:b7:62:7e:2d:2a:08:1f:d9:5c:
         d8:9d:be:4c:37:7c:bf:31:b0:f7:07:45:7c:ac:cd:4f:00:b9:
         d1:31:cc:a5:d2:83:ce:93:85:f0:d2:56:95:44:c8:bf:a1:0e:
         3a:03:a0:d9
-----BEGIN CERTIFICATE-----
MIIEHzCCAwegAwIBAgIBBjANBgkqhkiG9w0BAQUFADCBjDELMAkGA1UEBhMCQkEx
CzAJBgNVBAgTAlJTMRMwEQYDVQQHEwpCYW5qYSBMdWthMQwwCgYDVQQKEwNFVEYx
GjAYBgNVBAsUEUNBX01pcm9zbGF2TWFuZGljMREwDwYDVQQDEwhNaXJvc2xhdjEe
MBwGCSqGSIb3DQEJARYPbWlzb0BnbWFpbC5jb21cMB4XDTE4MDUxNDA4NTg0MFoX
DTE4MDgyMjA4NTg0MFowUjEMMAoGA1UEChMDRVRGMRowGAYDVQQLFBFDQV9NaXJv
c2xhdk1hbmRpYzEKMAgGA1UEAxMBMTEaMBgGCSqGSIb3DQEJARYLMUBnbWFpbC5j
b20wggEiMA0GCSqGSIb3DQEBAQUAA4IBDwAwggEKAoIBAQCW7csCRCUGqHBKD1PJ
ApExQrVDmZaUfS9IDdtzryXrCUpK953WzvdwTE9zxSiQrsC2GQE49n5mgAFwHlNS
NxqSIuejHhaJLZAidAdpTjKZ8saSR08+l1tYa8H7oJ8jw+1KBnh7lIA0C1Excnop
gaydfdFmqHNpOechGdFwPpwkmL8OaWD8BXCfG1u2FJuSTeb2YZdpeXaItp5+4Rzi
lBLKiH40IEhFk+rKNMS3DZ04T7rlyUNlATdMybDyEGNM+l2Ya1vCWLtyruOLBPcC
o/QtJgcw7hKSkg3qQLyZuo+bUrYR0rfT52XuY5oMOCptA5ngg8mfq8KFjI4XvX0o
vVZTAgMBAAGjgcQwgcEwCQYDVR0TBAIwADATBgNVHSUEDDAKBggrBgEFBQcDAjAs
BglghkgBhvhCAQ0EHxYdT3BlblNTTCBHZW5lcmF0ZWQgQ2VydGlmaWNhdGUwHQYD
VR0OBBYEFLtP/8coxhnNnuVjEwdcWCWMizUhMB8GA1UdIwQYMBaAFIAYxHFxUwIl
UJFY15wqaYTOJ3sbMDEGA1UdHwQqMCgwJqAkoCKGIGh0dHA6Ly8xOTIuMTY4LjIx
Ljg5L3Jvb3RjcmwucGVtMA0GCSqGSIb3DQEBBQUAA4IBAQCIWoXijIcynRCdM5j3
s8EI6ARnogjD4jBxoSLsunfvX9I+J38ViDYhZamT0brwr8m97sVzl9LAttaTb01t
A1bXxYLlP1xFDc2t7xjWQ5t5YGhpTndCHLkRaiuqguA1N8SjZTaYqc6bF0FSWaDn
jyjZGV+uuZxkzWM8MIJMzgRc/EVKiLwEUYmPbtqz2RH3WNHwmHHQRRzvD6GeFkfm
2niuxtWV7uBbGqN6A0AooLpYQojtYmNSYru6nqncbu+TfUlk7UuY+X4bpzXlr2h7
iLq3Yn4tKggf2VzYnb5MN3y/MbD3B0V8rM1PALnRMcyl0oPOk4Xw0laVRMi/oQ46
A6DZ
-----END CERTIFICATE-----
