Certificate:
    Data:
        Version: 3 (0x2)
        Serial Number: 11 (0xb)
        Signature Algorithm: sha1WithRSAEncryption
        Issuer: C=BA, ST=RS, L=Banja Luka, O=ETF, OU=CA_MiroslavMandic, CN=Miroslav/emailAddress=miso@gmail.com\
        Validity
            Not Before: Dec 20 09:12:11 2019 GMT
            Not After : Mar 29 09:12:11 2020 GMT
        Subject: O=ETF, OU=CA_MiroslavMandic, CN=miso2/emailAddress=miso2@gmail.com
        Subject Public Key Info:
            Public Key Algorithm: rsaEncryption
                RSA Public-Key: (2048 bit)
                Modulus:
                    00:9f:8c:8e:b8:42:32:45:78:90:e2:ae:c3:69:7b:
                    92:f4:d4:61:12:e5:b3:c9:cd:df:3f:e1:13:ec:c2:
                    fd:28:2e:a8:cf:12:6f:52:c9:8b:c4:b3:6c:90:69:
                    08:6b:b4:54:e9:3e:b4:29:73:ab:f5:64:b3:9c:8f:
                    9b:f3:37:e7:bf:6d:41:5a:a1:b0:76:fa:d1:df:45:
                    2f:2d:9b:59:ac:d7:dd:f7:a3:63:9a:4b:2c:ea:6a:
                    e5:e4:19:66:c4:6e:0b:fd:d0:aa:e5:8a:a7:f5:a1:
                    9e:f7:b2:90:2c:21:48:1a:8e:00:59:7e:c3:82:76:
                    11:60:32:7d:f5:c1:5a:ed:70:54:f5:93:98:0e:1c:
                    19:65:bf:db:2b:06:73:06:e6:82:10:72:9d:2e:f4:
                    27:fa:f5:80:75:a4:a4:1e:7b:93:a8:56:fe:33:09:
                    7d:fa:b9:f6:92:ad:92:99:03:a7:7d:88:0c:d6:d5:
                    ae:c8:8f:05:72:1c:fb:d3:8b:cc:18:26:ad:ea:f7:
                    84:96:ca:b4:84:b5:6b:aa:af:d4:47:0e:8c:5c:4c:
                    6c:73:f7:6a:cf:fb:e9:d7:4e:01:48:1b:c4:f6:60:
                    0b:29:54:74:7e:59:87:4e:f0:b5:cc:cc:16:a8:23:
                    94:aa:78:24:a0:d3:e8:47:f2:63:eb:ca:a4:fc:d7:
                    d7:f9
                Exponent: 65537 (0x10001)
        X509v3 extensions:
            X509v3 Basic Constraints: 
                CA:FALSE
            X509v3 Extended Key Usage: 
                TLS Web Client Authentication
            Netscape Comment: 
                OpenSSL Generated Certificate
            X509v3 Subject Key Identifier: 
                43:42:88:C1:22:92:D0:CA:15:79:FE:31:A4:AA:0C:D8:AD:7C:26:48
            X509v3 Authority Key Identifier: 
                keyid:80:18:C4:71:71:53:02:25:50:91:58:D7:9C:2A:69:84:CE:27:7B:1B

            X509v3 CRL Distribution Points: 

                Full Name:
                  URI:http://192.168.21.89/rootcrl.pem

    Signature Algorithm: sha1WithRSAEncryption
         24:07:32:a6:fa:f0:30:60:b4:08:fe:05:27:d1:a8:01:14:bc:
         53:b3:fd:30:42:6b:bf:68:ab:7e:da:6a:49:36:58:c3:f8:a3:
         54:62:dc:7f:3c:ef:1d:9d:0c:c9:ea:46:46:d0:53:fb:f3:f8:
         16:72:55:bd:60:f1:5a:04:8c:1c:64:d8:74:5f:31:28:03:40:
         00:9d:3a:02:c5:e5:7c:74:59:2b:80:75:ef:8c:39:9b:71:77:
         b9:0c:ec:ed:e1:dd:02:05:f4:15:18:57:95:d2:c4:c5:15:c3:
         3a:97:9f:d6:e9:a9:7e:eb:06:10:d3:78:e7:08:16:af:a7:59:
         52:77:05:f1:3f:51:59:6a:d8:d5:7b:ca:51:2a:07:09:60:1b:
         30:76:39:07:c4:13:31:8a:c2:39:6a:5d:cf:a9:f9:15:13:29:
         f3:f5:c7:10:0d:88:0d:20:07:32:36:f8:ef:de:5a:1d:6f:af:
         f0:80:96:f1:06:b9:e7:87:da:1e:b3:c1:aa:66:41:0f:29:48:
         9d:e1:28:cc:74:fb:ce:29:8e:4a:2e:c0:5b:2f:24:ca:7c:8f:
         da:31:7d:30:e0:9a:42:3c:d5:64:22:2c:e8:79:67:da:3c:e6:
         d5:e3:a2:b1:41:7f:a5:55:4b:79:1b:ab:b3:ed:01:12:12:34:
         47:64:f4:d0
-----BEGIN CERTIFICATE-----
MIIEJzCCAw+gAwIBAgIBCzANBgkqhkiG9w0BAQUFADCBjDELMAkGA1UEBhMCQkEx
CzAJBgNVBAgTAlJTMRMwEQYDVQQHEwpCYW5qYSBMdWthMQwwCgYDVQQKEwNFVEYx
GjAYBgNVBAsUEUNBX01pcm9zbGF2TWFuZGljMREwDwYDVQQDEwhNaXJvc2xhdjEe
MBwGCSqGSIb3DQEJARYPbWlzb0BnbWFpbC5jb21cMB4XDTE5MTIyMDA5MTIxMVoX
DTIwMDMyOTA5MTIxMVowWjEMMAoGA1UEChMDRVRGMRowGAYDVQQLFBFDQV9NaXJv
c2xhdk1hbmRpYzEOMAwGA1UEAxMFbWlzbzIxHjAcBgkqhkiG9w0BCQEWD21pc28y
QGdtYWlsLmNvbTCCASIwDQYJKoZIhvcNAQEBBQADggEPADCCAQoCggEBAJ+MjrhC
MkV4kOKuw2l7kvTUYRLls8nN3z/hE+zC/SguqM8Sb1LJi8SzbJBpCGu0VOk+tClz
q/Vks5yPm/M3579tQVqhsHb60d9FLy2bWazX3fejY5pLLOpq5eQZZsRuC/3QquWK
p/WhnveykCwhSBqOAFl+w4J2EWAyffXBWu1wVPWTmA4cGWW/2ysGcwbmghBynS70
J/r1gHWkpB57k6hW/jMJffq59pKtkpkDp32IDNbVrsiPBXIc+9OLzBgmrer3hJbK
tIS1a6qv1EcOjFxMbHP3as/76ddOAUgbxPZgCylUdH5Zh07wtczMFqgjlKp4JKDT
6EfyY+vKpPzX1/kCAwEAAaOBxDCBwTAJBgNVHRMEAjAAMBMGA1UdJQQMMAoGCCsG
AQUFBwMCMCwGCWCGSAGG+EIBDQQfFh1PcGVuU1NMIEdlbmVyYXRlZCBDZXJ0aWZp
Y2F0ZTAdBgNVHQ4EFgQUQ0KIwSKS0MoVef4xpKoM2K18JkgwHwYDVR0jBBgwFoAU
gBjEcXFTAiVQkVjXnCpphM4nexswMQYDVR0fBCowKDAmoCSgIoYgaHR0cDovLzE5
Mi4xNjguMjEuODkvcm9vdGNybC5wZW0wDQYJKoZIhvcNAQEFBQADggEBACQHMqb6
8DBgtAj+BSfRqAEUvFOz/TBCa79oq37aakk2WMP4o1Ri3H887x2dDMnqRkbQU/vz
+BZyVb1g8VoEjBxk2HRfMSgDQACdOgLF5Xx0WSuAde+MOZtxd7kM7O3h3QIF9BUY
V5XSxMUVwzqXn9bpqX7rBhDTeOcIFq+nWVJ3BfE/UVlq2NV7ylEqBwlgGzB2OQfE
EzGKwjlqXc+p+RUTKfP1xxANiA0gBzI2+O/eWh1vr/CAlvEGueeH2h6zwapmQQ8p
SJ3hKMx0+84pjkouwFsvJMp8j9oxfTDgmkI81WQiLOh5Z9o85tXjorFBf6VVS3kb
q7PtARISNEdk9NA=
-----END CERTIFICATE-----
