Certificate:
    Data:
        Version: 3 (0x2)
        Serial Number: 3 (0x3)
    Signature Algorithm: sha1WithRSAEncryption
        Issuer: C=BA, ST=RS, L=Banja Luka, O=ETF, OU=CA_MiroslavMandic, CN=Miso/emailAddress=miso@gmail.com
        Validity
            Not Before: Feb 17 10:33:04 2018 GMT
            Not After : Mar  9 10:33:04 2018 GMT
        Subject: O=ETF, OU=CA_MiroslavMandic, CN=admin/emailAddress=admin@admin.com
        Subject Public Key Info:
            Public Key Algorithm: rsaEncryption
                Public-Key: (2048 bit)
                Modulus:
                    00:9d:76:bd:30:62:2a:32:91:4d:a2:6e:af:b9:08:
                    b3:90:bd:38:b1:3a:69:06:96:01:e6:44:10:c5:61:
                    ec:e1:12:10:f0:23:44:ef:2b:6d:31:0b:61:2a:cb:
                    b1:16:60:67:f1:42:29:49:07:64:a5:83:3b:69:38:
                    28:81:37:04:d2:b7:d9:38:e4:61:fb:50:4a:ec:23:
                    d8:84:12:c6:00:67:9c:0f:fc:52:63:16:26:69:ca:
                    97:25:2f:b8:17:6b:27:62:b2:3b:5f:5f:24:2e:a8:
                    33:01:b7:01:90:4d:88:99:38:f6:cf:9f:56:dd:fd:
                    60:d2:88:2c:30:38:c2:8d:b5:93:6c:47:39:f0:3d:
                    c7:8e:ab:72:ca:b9:42:41:56:b0:81:b4:13:c4:21:
                    69:48:f7:60:02:94:41:98:db:59:60:1e:7f:e7:bf:
                    40:15:80:cd:76:ce:8e:bb:69:41:3c:f4:2e:47:77:
                    33:b1:cc:16:e3:f6:83:8a:5a:53:7a:a4:a8:58:d3:
                    92:18:11:32:eb:d6:2e:59:e0:8d:e7:25:ba:7e:90:
                    30:01:48:9a:c5:97:d8:28:88:b8:44:76:70:34:8c:
                    0e:28:d4:a4:72:40:e9:d1:48:1f:2a:aa:60:06:05:
                    41:51:71:dc:1f:41:43:f2:62:4d:1b:09:45:21:9f:
                    59:77
                Exponent: 65537 (0x10001)
        X509v3 extensions:
            X509v3 Basic Constraints: 
                CA:FALSE
            X509v3 Extended Key Usage: 
                TLS Web Client Authentication
            Netscape Comment: 
                OpenSSL Generated Certificate
            X509v3 Subject Key Identifier: 
                CD:B6:84:EF:72:FB:B6:55:9F:6C:57:C0:0A:C0:2D:4E:35:43:2E:DF
            X509v3 Authority Key Identifier: 
                keyid:C1:C8:FE:C2:C3:B0:79:C4:FA:83:6B:DA:AE:7F:11:04:21:BC:6A:AD

            X509v3 CRL Distribution Points: 

                Full Name:
                  URI:http://192.168.21.89/rootcrl.pem

    Signature Algorithm: sha1WithRSAEncryption
         07:1d:cf:7e:06:f8:bc:1c:6c:71:2f:3d:e1:94:ec:26:17:bb:
         2e:63:fe:c0:2d:cf:f0:f9:07:b4:0f:47:4b:06:33:c0:0f:8b:
         68:8d:98:c1:92:47:ea:c4:03:81:d7:52:53:8b:53:83:b1:1a:
         5e:75:1d:81:48:2f:91:80:63:60:26:15:56:be:3c:63:e4:17:
         53:09:f5:95:a4:40:f6:9f:ad:52:d8:e7:ca:d3:7e:78:af:f3:
         6e:6a:73:9b:07:73:06:70:40:0e:0a:0b:c4:19:31:be:86:93:
         3e:b5:c5:17:41:50:bb:12:9a:fb:43:c2:09:ad:c7:10:4c:da:
         13:bc:88:b0:e7:dc:aa:56:b0:9c:96:99:ee:b7:96:2d:79:f3:
         35:67:7f:bf:e2:6a:23:8e:bb:a7:66:af:b5:29:19:63:a1:78:
         52:30:b2:6c:48:01:2e:e3:25:d8:89:16:4c:2e:6e:e0:6a:03:
         96:6d:f6:06:8a:bc:79:c2:8a:ef:ff:4b:35:03:d8:ce:74:74:
         2a:d4:bc:81:67:43:19:22:62:28:31:e1:f8:97:dc:a6:e7:d5:
         d6:da:22:8b:3e:38:31:ed:ab:06:67:4e:e1:3b:55:9a:9b:d8:
         c9:6d:da:fd:d8:40:b3:20:6c:34:c6:6d:41:c2:47:80:b3:a2:
         8c:1b:c9:4c:d9:97:a3:15:5d:7c:ae:b0:d5:40:7e:dd:1a:08:
         29:1e:88:90:db:35:68:36:14:4e:e4:a2:98:38:60:38:67:8d:
         9e:34:6f:3e:94:3a:56:72:f9:21:ae:d4:02:3e:e6:c2:c7:92:
         54:8c:9b:99:9d:27:55:10:95:82:0b:72:a1:f6:3a:9e:d9:fc:
         01:f7:6f:70:91:2a:08:1a:0f:e5:ad:ff:e2:20:26:63:ac:79:
         db:f1:b1:20:c1:80:aa:10:08:bc:9d:95:2a:9d:74:ba:fd:21:
         13:b2:50:c2:e2:1b:f5:23:91:ce:3c:ea:4c:b2:d3:cc:92:4e:
         29:24:fd:50:0c:7f:f4:e5:3b:6b:e8:e3:85:e7:11:98:be:b6:
         64:0c:0d:6f:46:5d:8d:a5:86:e7:69:db:48:4d:36:a2:dc:96:
         d3:7d:22:27:11:b1:1f:d9:9a:5e:0f:dc:25:7f:e7:1b:74:68:
         08:82:83:a0:a7:e9:da:1e:51:79:a0:ec:40:d0:93:bb:be:a1:
         3e:2d:db:23:29:2e:4c:21:30:20:de:79:9e:65:5d:30:32:c9:
         d1:10:37:e4:a4:b0:fe:2f:3d:f3:8e:ae:85:d1:7b:f4:30:cd:
         c6:42:7f:02:48:61:17:16:ac:a0:ca:dc:40:e5:99:0a:2a:55:
         91:ae:1d:bc:69:71:ce:62
-----BEGIN CERTIFICATE-----
MIIFIjCCAwqgAwIBAgIBAzANBgkqhkiG9w0BAQUFADCBhzELMAkGA1UEBhMCQkEx
CzAJBgNVBAgTAlJTMRMwEQYDVQQHEwpCYW5qYSBMdWthMQwwCgYDVQQKEwNFVEYx
GjAYBgNVBAsUEUNBX01pcm9zbGF2TWFuZGljMQ0wCwYDVQQDEwRNaXNvMR0wGwYJ
KoZIhvcNAQkBFg5taXNvQGdtYWlsLmNvbTAeFw0xODAyMTcxMDMzMDRaFw0xODAz
MDkxMDMzMDRaMFoxDDAKBgNVBAoTA0VURjEaMBgGA1UECxQRQ0FfTWlyb3NsYXZN
YW5kaWMxDjAMBgNVBAMTBWFkbWluMR4wHAYJKoZIhvcNAQkBFg9hZG1pbkBhZG1p
bi5jb20wggEiMA0GCSqGSIb3DQEBAQUAA4IBDwAwggEKAoIBAQCddr0wYioykU2i
bq+5CLOQvTixOmkGlgHmRBDFYezhEhDwI0TvK20xC2Eqy7EWYGfxQilJB2Slgztp
OCiBNwTSt9k45GH7UErsI9iEEsYAZ5wP/FJjFiZpypclL7gXaydisjtfXyQuqDMB
twGQTYiZOPbPn1bd/WDSiCwwOMKNtZNsRznwPceOq3LKuUJBVrCBtBPEIWlI92AC
lEGY21lgHn/nv0AVgM12zo67aUE89C5HdzOxzBbj9oOKWlN6pKhY05IYETLr1i5Z
4I3nJbp+kDABSJrFl9goiLhEdnA0jA4o1KRyQOnRSB8qqmAGBUFRcdwfQUPyYk0b
CUUhn1l3AgMBAAGjgcQwgcEwCQYDVR0TBAIwADATBgNVHSUEDDAKBggrBgEFBQcD
AjAsBglghkgBhvhCAQ0EHxYdT3BlblNTTCBHZW5lcmF0ZWQgQ2VydGlmaWNhdGUw
HQYDVR0OBBYEFM22hO9y+7ZVn2xXwArALU41Qy7fMB8GA1UdIwQYMBaAFMHI/sLD
sHnE+oNr2q5/EQQhvGqtMDEGA1UdHwQqMCgwJqAkoCKGIGh0dHA6Ly8xOTIuMTY4
LjIxLjg5L3Jvb3RjcmwucGVtMA0GCSqGSIb3DQEBBQUAA4ICAQAHHc9+Bvi8HGxx
Lz3hlOwmF7suY/7ALc/w+Qe0D0dLBjPAD4tojZjBkkfqxAOB11JTi1ODsRpedR2B
SC+RgGNgJhVWvjxj5BdTCfWVpED2n61S2OfK0354r/NuanObB3MGcEAOCgvEGTG+
hpM+tcUXQVC7Epr7Q8IJrccQTNoTvIiw59yqVrCclpnut5YtefM1Z3+/4mojjrun
Zq+1KRljoXhSMLJsSAEu4yXYiRZMLm7gagOWbfYGirx5worv/0s1A9jOdHQq1LyB
Z0MZImIoMeH4l9ym59XW2iKLPjgx7asGZ07hO1Wam9jJbdr92ECzIGw0xm1BwkeA
s6KMG8lM2ZejFV18rrDVQH7dGggpHoiQ2zVoNhRO5KKYOGA4Z42eNG8+lDpWcvkh
rtQCPubCx5JUjJuZnSdVEJWCC3Kh9jqe2fwB929wkSoIGg/lrf/iICZjrHnb8bEg
wYCqEAi8nZUqnXS6/SETslDC4hv1I5HOPOpMstPMkk4pJP1QDH/05Ttr6OOF5xGY
vrZkDA1vRl2NpYbnadtITTai3JbTfSInEbEf2ZpeD9wlf+cbdGgIgoOgp+naHlF5
oOxA0JO7vqE+LdsjKS5MITAg3nmeZV0wMsnREDfkpLD+Lz3zjq6F0Xv0MM3GQn8C
SGEXFqygytxA5ZkKKlWRrh28aXHOYg==
-----END CERTIFICATE-----
