Certificate:
    Data:
        Version: 3 (0x2)
        Serial Number: 4 (0x4)
        Signature Algorithm: sha1WithRSAEncryption
        Issuer: C=BA, ST=RS, L=Banja Luka, O=ETF, OU=CA_MiroslavMandic, CN=Miroslav/emailAddress=miso@gmail.com\
        Validity
            Not Before: Mar 28 20:03:58 2018 GMT
            Not After : Jul  6 20:03:58 2018 GMT
        Subject: O=ETF, OU=CA_MiroslavMandic, CN=Admin/emailAddress=Admin@gmail.com
        Subject Public Key Info:
            Public Key Algorithm: rsaEncryption
            RSA Public Key: (512 bit)
                Modulus (512 bit):
                    00:c9:b0:ef:a5:a1:a5:9e:d5:26:c4:d9:b4:b6:d7:
                    c2:0f:a8:1e:93:08:dc:43:22:3d:43:f8:ff:8a:f2:
                    f1:68:c1:b0:c1:ba:3a:00:f7:b0:84:4a:1d:06:b9:
                    83:85:fa:c8:b1:fd:76:82:df:05:f5:d1:b5:28:25:
                    6c:7e:72:28:79
                Exponent: 65537 (0x10001)
        X509v3 extensions:
            X509v3 Basic Constraints: 
                CA:FALSE
            X509v3 Extended Key Usage: 
                TLS Web Client Authentication
            Netscape Comment: 
                OpenSSL Generated Certificate
            X509v3 Subject Key Identifier: 
                42:A5:C1:69:99:9B:A9:61:35:03:32:75:37:B0:F8:71:B9:28:8F:3D
            X509v3 Authority Key Identifier: 
                keyid:80:18:C4:71:71:53:02:25:50:91:58:D7:9C:2A:69:84:CE:27:7B:1B

            X509v3 CRL Distribution Points: 
                URI:http://192.168.21.89/rootcrl.pem

    Signature Algorithm: sha1WithRSAEncryption
        18:31:5d:ec:16:9e:18:23:09:5e:51:0f:1e:fb:70:e5:41:50:
        5e:47:dd:a5:9b:e3:9e:52:0c:1e:51:2d:71:74:42:f2:7f:06:
        d1:1a:1b:7c:91:4e:7a:83:7c:b0:60:3b:b9:60:d4:72:a9:d4:
        2e:04:f6:bb:1b:8b:90:86:09:84:b9:7f:3a:4b:82:d6:07:fd:
        07:ff:b6:f1:19:24:a7:cc:3d:f7:27:fc:39:7e:7b:88:9f:11:
        be:74:45:33:a1:0b:3e:3c:3d:95:ca:a8:b9:ad:ff:66:2f:03:
        55:f8:f8:05:7d:b7:66:64:c5:d9:f5:56:bb:3c:23:a3:22:91:
        a7:f5:36:70:d1:e1:26:39:75:9d:51:46:8f:db:a9:a7:e3:cc:
        13:2b:e1:3e:27:c0:31:16:b6:9e:11:9c:97:99:19:5c:7a:0b:
        e8:1d:ac:73:38:69:c8:b8:70:59:b6:ee:ad:93:be:1a:30:f2:
        e4:56:8b:d5:23:5f:76:e2:58:7e:09:fa:eb:23:23:bc:46:14:
        4b:85:9c:60:b0:5f:9a:32:00:ad:7c:db:1e:c3:18:9f:66:b1:
        0f:68:cb:b0:83:4f:ee:f1:a6:9c:42:06:f6:cf:6c:c3:21:ad:
        bb:b2:b1:c3:8e:3e:e5:ae:57:32:b5:cd:af:b4:ef:c6:99:a1:
        ca:49:a1:a4
-----BEGIN CERTIFICATE-----
MIIDXzCCAkegAwIBAgIBBDANBgkqhkiG9w0BAQUFADCBjDELMAkGA1UEBhMCQkEx
CzAJBgNVBAgTAlJTMRMwEQYDVQQHEwpCYW5qYSBMdWthMQwwCgYDVQQKEwNFVEYx
GjAYBgNVBAsUEUNBX01pcm9zbGF2TWFuZGljMREwDwYDVQQDEwhNaXJvc2xhdjEe
MBwGCSqGSIb3DQEJARYPbWlzb0BnbWFpbC5jb21cMB4XDTE4MDMyODIwMDM1OFoX
DTE4MDcwNjIwMDM1OFowWjEMMAoGA1UEChMDRVRGMRowGAYDVQQLFBFDQV9NaXJv
c2xhdk1hbmRpYzEOMAwGA1UEAxMFQWRtaW4xHjAcBgkqhkiG9w0BCQEWD0FkbWlu
QGdtYWlsLmNvbTBcMA0GCSqGSIb3DQEBAQUAA0sAMEgCQQDJsO+loaWe1SbE2bS2
18IPqB6TCNxDIj1D+P+K8vFowbDBujoA97CESh0GuYOF+six/XaC3wX10bUoJWx+
cih5AgMBAAGjgcQwgcEwCQYDVR0TBAIwADATBgNVHSUEDDAKBggrBgEFBQcDAjAs
BglghkgBhvhCAQ0EHxYdT3BlblNTTCBHZW5lcmF0ZWQgQ2VydGlmaWNhdGUwHQYD
VR0OBBYEFEKlwWmZm6lhNQMydTew+HG5KI89MB8GA1UdIwQYMBaAFIAYxHFxUwIl
UJFY15wqaYTOJ3sbMDEGA1UdHwQqMCgwJqAkoCKGIGh0dHA6Ly8xOTIuMTY4LjIx
Ljg5L3Jvb3RjcmwucGVtMA0GCSqGSIb3DQEBBQUAA4IBAQAYMV3sFp4YIwleUQ8e
+3DlQVBeR92lm+OeUgweUS1xdELyfwbRGht8kU56g3ywYDu5YNRyqdQuBPa7G4uQ
hgmEuX86S4LWB/0H/7bxGSSnzD33J/w5fnuInxG+dEUzoQs+PD2Vyqi5rf9mLwNV
+PgFfbdmZMXZ9Va7PCOjIpGn9TZw0eEmOXWdUUaP26mn48wTK+E+J8AxFraeEZyX
mRlcegvoHaxzOGnIuHBZtu6tk74aMPLkVovVI1924lh+CfrrIyO8RhRLhZxgsF+a
MgCtfNsewxifZrEPaMuwg0/u8aacQgb2z2zDIa27srHDjj7lrlcytc2vtO/GmaHK
SaGk
-----END CERTIFICATE-----
