Certificate:
    Data:
        Version: 3 (0x2)
        Serial Number: 5 (0x5)
        Signature Algorithm: sha1WithRSAEncryption
        Issuer: C=BA, ST=RS, L=Banja Luka, O=ETF, OU=CA_MiroslavMandic, CN=Miroslav/emailAddress=miso@gmail.com\
        Validity
            Not Before: Apr 12 07:07:32 2018 GMT
            Not After : May  2 07:07:32 2018 GMT
        Subject: O=ETF, OU=CA_MiroslavMandic, CN=Miso/emailAddress=Miso@gmail.com
        Subject Public Key Info:
            Public Key Algorithm: rsaEncryption
            RSA Public Key: (2048 bit)
                Modulus (2048 bit):
                    00:dc:a3:70:93:df:ec:e2:03:c4:12:1b:66:98:42:
                    ac:c6:8c:67:68:98:72:f3:47:77:47:33:e9:c0:3d:
                    4a:75:44:76:dc:95:ac:bd:6a:a4:ac:98:84:06:70:
                    b0:6f:54:0c:ce:57:ff:a9:6d:59:a8:c7:f3:73:53:
                    af:a2:06:00:e2:72:ad:fb:bb:43:df:f9:23:a1:e1:
                    b9:27:b1:5d:7e:be:ea:36:7a:4b:12:00:1c:7d:3a:
                    ab:1b:84:3b:79:eb:3a:29:1a:38:3f:5b:9a:0f:b8:
                    09:b4:b3:92:35:89:3f:93:e8:b6:c0:af:29:3c:ba:
                    63:e3:75:90:2a:0f:a8:d3:74:b0:68:d1:ac:3d:e4:
                    6b:8f:94:96:f1:7a:1a:d3:7e:a4:f9:1d:00:23:e0:
                    af:2c:9a:a8:2b:87:aa:7e:55:23:f8:88:fa:68:b0:
                    8a:b5:da:8e:d4:d3:b3:4b:d9:aa:12:98:a1:82:1b:
                    04:81:f5:2b:d1:a3:4b:30:34:fd:ac:93:21:53:8d:
                    e9:4e:e0:cb:f8:f6:0d:b0:dd:57:87:18:b1:78:fc:
                    a6:d0:ee:18:45:db:6e:dd:21:c1:04:d2:96:50:d6:
                    e2:3f:d0:d8:ea:f6:24:a8:b7:05:ff:ba:4d:0a:81:
                    f4:86:6b:e5:d3:45:41:e3:11:f6:82:12:56:6e:d4:
                    fe:ab
                Exponent: 65537 (0x10001)
        X509v3 extensions:
            X509v3 Basic Constraints: 
                CA:FALSE
            X509v3 Extended Key Usage: 
                TLS Web Client Authentication
            Netscape Comment: 
                OpenSSL Generated Certificate
            X509v3 Subject Key Identifier: 
                EB:33:A2:19:7C:08:5A:D1:A9:5E:6D:F4:2B:ED:06:F2:79:BD:56:C1
            X509v3 Authority Key Identifier: 
                keyid:80:18:C4:71:71:53:02:25:50:91:58:D7:9C:2A:69:84:CE:27:7B:1B

            X509v3 CRL Distribution Points: 
                URI:http://192.168.21.89/rootcrl.pem

    Signature Algorithm: sha1WithRSAEncryption
        b1:06:74:44:d9:71:73:53:85:8a:63:2b:a1:74:fa:73:0f:77:
        f7:d1:73:bd:9d:1d:bb:1e:2d:71:e1:c9:48:81:2e:81:74:fd:
        6a:be:4a:48:fa:b8:83:74:c5:05:07:cd:5c:04:a3:69:34:05:
        d2:48:aa:25:38:d1:fa:84:e7:13:e3:ce:fd:85:1b:6d:35:c3:
        43:d2:7a:e7:cd:df:61:a1:8d:d2:75:c3:2c:0b:46:1b:01:80:
        0d:e7:1d:96:eb:db:e8:33:41:07:0b:23:ca:1c:f7:db:ca:04:
        cc:de:35:7e:df:03:99:49:13:c7:58:3d:a3:50:96:09:42:91:
        e9:3f:51:69:e0:11:70:bf:7a:42:ab:19:a5:5f:6f:bd:cc:9e:
        c1:f6:1b:7c:35:23:12:47:a6:67:c1:41:0e:3a:57:85:b2:87:
        a8:05:1c:64:5f:34:bd:0e:32:6b:ba:54:f3:27:83:57:67:7a:
        6e:76:de:ee:0c:c8:a7:08:dd:e0:05:34:a6:65:60:0b:28:58:
        6d:49:47:3c:48:02:09:ea:71:d5:04:fd:86:71:ed:67:9c:78:
        ec:88:89:12:a0:37:85:92:9c:f1:fa:72:10:8d:95:f9:58:52:
        31:ac:a7:48:04:bd:8c:83:15:29:35:72:a9:d7:7b:b4:00:88:
        99:1f:22:e7
-----BEGIN CERTIFICATE-----
MIIEJTCCAw2gAwIBAgIBBTANBgkqhkiG9w0BAQUFADCBjDELMAkGA1UEBhMCQkEx
CzAJBgNVBAgTAlJTMRMwEQYDVQQHEwpCYW5qYSBMdWthMQwwCgYDVQQKEwNFVEYx
GjAYBgNVBAsUEUNBX01pcm9zbGF2TWFuZGljMREwDwYDVQQDEwhNaXJvc2xhdjEe
MBwGCSqGSIb3DQEJARYPbWlzb0BnbWFpbC5jb21cMB4XDTE4MDQxMjA3MDczMloX
DTE4MDUwMjA3MDczMlowWDEMMAoGA1UEChMDRVRGMRowGAYDVQQLFBFDQV9NaXJv
c2xhdk1hbmRpYzENMAsGA1UEAxMETWlzbzEdMBsGCSqGSIb3DQEJARYOTWlzb0Bn
bWFpbC5jb20wggEiMA0GCSqGSIb3DQEBAQUAA4IBDwAwggEKAoIBAQDco3CT3+zi
A8QSG2aYQqzGjGdomHLzR3dHM+nAPUp1RHbclay9aqSsmIQGcLBvVAzOV/+pbVmo
x/NzU6+iBgDicq37u0Pf+SOh4bknsV1+vuo2eksSABx9OqsbhDt56zopGjg/W5oP
uAm0s5I1iT+T6LbAryk8umPjdZAqD6jTdLBo0aw95GuPlJbxehrTfqT5HQAj4K8s
mqgrh6p+VSP4iPposIq12o7U07NL2aoSmKGCGwSB9SvRo0swNP2skyFTjelO4Mv4
9g2w3VeHGLF4/KbQ7hhF227dIcEE0pZQ1uI/0Njq9iSotwX/uk0KgfSGa+XTRUHj
EfaCElZu1P6rAgMBAAGjgcQwgcEwCQYDVR0TBAIwADATBgNVHSUEDDAKBggrBgEF
BQcDAjAsBglghkgBhvhCAQ0EHxYdT3BlblNTTCBHZW5lcmF0ZWQgQ2VydGlmaWNh
dGUwHQYDVR0OBBYEFOszohl8CFrRqV5t9CvtBvJ5vVbBMB8GA1UdIwQYMBaAFIAY
xHFxUwIlUJFY15wqaYTOJ3sbMDEGA1UdHwQqMCgwJqAkoCKGIGh0dHA6Ly8xOTIu
MTY4LjIxLjg5L3Jvb3RjcmwucGVtMA0GCSqGSIb3DQEBBQUAA4IBAQCxBnRE2XFz
U4WKYyuhdPpzD3f30XO9nR27Hi1x4clIgS6BdP1qvkpI+riDdMUFB81cBKNpNAXS
SKolONH6hOcT4879hRttNcND0nrnzd9hoY3SdcMsC0YbAYAN5x2W69voM0EHCyPK
HPfbygTM3jV+3wOZSRPHWD2jUJYJQpHpP1Fp4BFwv3pCqxmlX2+9zJ7B9ht8NSMS
R6ZnwUEOOleFsoeoBRxkXzS9DjJrulTzJ4NXZ3pudt7uDMinCN3gBTSmZWALKFht
SUc8SAIJ6nHVBP2Gce1nnHjsiIkSoDeFkpzx+nIQjZX5WFIxrKdIBL2MgxUpNXKp
13u0AIiZHyLn
-----END CERTIFICATE-----
