Certificate:
    Data:
        Version: 3 (0x2)
        Serial Number: 9 (0x9)
    Signature Algorithm: sha1WithRSAEncryption
        Issuer: C=BA, ST=RS, L=Banja Luka, O=ETF, OU=CA_MiroslavMandic, CN=Miroslav/emailAddress=miso@gmail.com\
        Validity
            Not Before: May 14 11:20:26 2018 GMT
            Not After : Aug 22 11:20:26 2018 GMT
        Subject: O=ETF, OU=CA_MiroslavMandic, CN=test/emailAddress=test@gmail.com
        Subject Public Key Info:
            Public Key Algorithm: rsaEncryption
                Public-Key: (2048 bit)
                Modulus:
                    00:a9:7c:ec:b4:5d:43:cb:e3:c0:c0:06:de:b2:5a:
                    a7:3f:84:96:e4:7a:bf:5d:5d:81:4c:8d:2b:10:b4:
                    58:bf:c7:fa:20:b5:26:70:be:ad:68:71:72:39:21:
                    8f:0f:26:42:ad:32:88:32:9b:2b:97:f4:f8:28:1f:
                    82:83:d7:62:a9:3e:e4:2f:59:6a:e3:a6:e0:d8:fa:
                    e6:b7:bf:5d:c2:52:3e:ec:f4:cc:16:a7:4d:11:29:
                    68:8f:5d:08:7d:6e:f4:1d:ef:b4:8f:d0:e2:f2:e6:
                    7f:a1:7d:90:64:f0:45:c6:91:b4:b4:db:a2:64:3a:
                    c7:86:26:50:61:8e:40:54:18:57:26:7e:94:12:a3:
                    5f:f0:c3:d0:2a:aa:0a:d8:06:22:8e:dd:1c:00:e9:
                    d0:e4:bd:6e:3f:a7:33:b7:b5:de:80:68:83:df:0d:
                    7a:d9:5f:ab:80:f0:96:70:53:95:8d:76:22:27:a4:
                    92:e3:66:dc:95:d4:d7:bf:83:4c:76:44:9c:94:3d:
                    32:04:25:43:cc:a1:d0:0d:0a:78:11:72:25:61:15:
                    48:8e:1d:78:4d:ae:62:02:e0:e4:71:85:4e:b1:b3:
                    39:88:91:ad:4e:b6:50:5c:a2:d3:de:ed:e3:73:d0:
                    48:91:81:eb:a6:40:6a:45:1b:9c:35:2f:da:9a:e0:
                    85:5f
                Exponent: 65537 (0x10001)
        X509v3 extensions:
            X509v3 Basic Constraints: 
                CA:FALSE
            X509v3 Extended Key Usage: 
                TLS Web Client Authentication
            Netscape Comment: 
                OpenSSL Generated Certificate
            X509v3 Subject Key Identifier: 
                D8:0E:CD:92:63:5C:CC:FE:C8:37:3C:8A:46:3D:FC:C0:98:D3:49:5F
            X509v3 Authority Key Identifier: 
                keyid:80:18:C4:71:71:53:02:25:50:91:58:D7:9C:2A:69:84:CE:27:7B:1B

            X509v3 CRL Distribution Points: 

                Full Name:
                  URI:http://192.168.21.89/rootcrl.pem

    Signature Algorithm: sha1WithRSAEncryption
         a8:c3:57:1a:83:11:ba:3d:ec:8a:42:03:35:07:ae:c4:65:6e:
         ea:90:80:08:6f:8d:56:a3:2e:de:a4:30:0f:3d:ba:b0:10:e9:
         67:19:ef:83:41:ef:1d:c5:f6:73:fc:45:5c:a2:a3:7c:58:a0:
         94:f9:9d:b3:67:36:c7:47:9f:2d:52:c7:63:84:62:13:e5:f0:
         6b:2a:34:58:d1:eb:b5:01:06:d4:53:47:e8:f5:b8:ac:cd:e6:
         d2:c1:fc:93:c9:bf:73:58:b6:9f:99:45:c5:cd:c1:88:84:c2:
         65:c4:b6:fa:d1:98:34:4f:8c:4f:d0:1c:e4:8e:fc:5b:e6:3c:
         0c:91:73:27:df:7e:b5:fe:d1:a0:76:bc:85:df:9c:d1:e0:c7:
         9d:09:5c:01:c5:7b:cf:88:bd:1f:17:d0:bb:d7:71:c0:bf:86:
         4e:a4:e5:0b:d8:dc:9b:9e:26:d7:5e:c4:33:5a:89:04:12:ca:
         ef:e2:b3:b1:5c:84:86:49:15:4c:8d:b0:5f:fa:38:16:d3:fc:
         3a:75:a2:47:be:c0:29:aa:9c:11:d6:bf:d7:5b:17:ae:24:fc:
         54:da:56:39:87:eb:bb:42:3e:17:6c:47:2b:eb:63:7c:71:28:
         b7:7f:32:1a:df:6b:a4:3f:d4:07:c7:d1:c8:e6:59:bc:29:d4:
         87:24:35:45
-----BEGIN CERTIFICATE-----
MIIEJTCCAw2gAwIBAgIBCTANBgkqhkiG9w0BAQUFADCBjDELMAkGA1UEBhMCQkEx
CzAJBgNVBAgTAlJTMRMwEQYDVQQHEwpCYW5qYSBMdWthMQwwCgYDVQQKEwNFVEYx
GjAYBgNVBAsUEUNBX01pcm9zbGF2TWFuZGljMREwDwYDVQQDEwhNaXJvc2xhdjEe
MBwGCSqGSIb3DQEJARYPbWlzb0BnbWFpbC5jb21cMB4XDTE4MDUxNDExMjAyNloX
DTE4MDgyMjExMjAyNlowWDEMMAoGA1UEChMDRVRGMRowGAYDVQQLFBFDQV9NaXJv
c2xhdk1hbmRpYzENMAsGA1UEAxMEdGVzdDEdMBsGCSqGSIb3DQEJARYOdGVzdEBn
bWFpbC5jb20wggEiMA0GCSqGSIb3DQEBAQUAA4IBDwAwggEKAoIBAQCpfOy0XUPL
48DABt6yWqc/hJbker9dXYFMjSsQtFi/x/ogtSZwvq1ocXI5IY8PJkKtMogymyuX
9PgoH4KD12KpPuQvWWrjpuDY+ua3v13CUj7s9MwWp00RKWiPXQh9bvQd77SP0OLy
5n+hfZBk8EXGkbS026JkOseGJlBhjkBUGFcmfpQSo1/ww9AqqgrYBiKO3RwA6dDk
vW4/pzO3td6AaIPfDXrZX6uA8JZwU5WNdiInpJLjZtyV1Ne/g0x2RJyUPTIEJUPM
odANCngRciVhFUiOHXhNrmIC4ORxhU6xszmIka1OtlBcotPe7eNz0EiRgeumQGpF
G5w1L9qa4IVfAgMBAAGjgcQwgcEwCQYDVR0TBAIwADATBgNVHSUEDDAKBggrBgEF
BQcDAjAsBglghkgBhvhCAQ0EHxYdT3BlblNTTCBHZW5lcmF0ZWQgQ2VydGlmaWNh
dGUwHQYDVR0OBBYEFNgOzZJjXMz+yDc8ikY9/MCY00lfMB8GA1UdIwQYMBaAFIAY
xHFxUwIlUJFY15wqaYTOJ3sbMDEGA1UdHwQqMCgwJqAkoCKGIGh0dHA6Ly8xOTIu
MTY4LjIxLjg5L3Jvb3RjcmwucGVtMA0GCSqGSIb3DQEBBQUAA4IBAQCow1cagxG6
PeyKQgM1B67EZW7qkIAIb41Woy7epDAPPbqwEOlnGe+DQe8dxfZz/EVcoqN8WKCU
+Z2zZzbHR58tUsdjhGIT5fBrKjRY0eu1AQbUU0fo9biszebSwfyTyb9zWLafmUXF
zcGIhMJlxLb60Zg0T4xP0Bzkjvxb5jwMkXMn3361/tGgdryF35zR4MedCVwBxXvP
iL0fF9C713HAv4ZOpOUL2NybnibXXsQzWokEEsrv4rOxXISGSRVMjbBf+jgW0/w6
daJHvsApqpwR1r/XWxeuJPxU2lY5h+u7Qj4XbEcr62N8cSi3fzIa32ukP9QHx9HI
5lm8KdSHJDVF
-----END CERTIFICATE-----
