Certificate:
    Data:
        Version: 3 (0x2)
        Serial Number: 10 (0xa)
        Signature Algorithm: sha1WithRSAEncryption
        Issuer: C=BA, ST=RS, L=Banja Luka, O=ETF, OU=CA_MiroslavMandic, CN=Miroslav/emailAddress=miso@gmail.com\
        Validity
            Not Before: Dec 20 09:02:52 2019 GMT
            Not After : Mar 29 09:02:52 2020 GMT
        Subject: O=ETF, OU=CA_MiroslavMandic, CN=miso/emailAddress=miso@gmail.com
        Subject Public Key Info:
            Public Key Algorithm: rsaEncryption
                RSA Public-Key: (2048 bit)
                Modulus:
                    00:cc:fb:17:53:52:10:80:b5:f6:d7:c2:fb:13:82:
                    d7:1b:dd:80:b3:00:29:dc:0d:09:0f:a9:cf:de:ed:
                    bb:95:fc:35:d2:3d:0e:27:0f:73:99:d0:fa:95:2e:
                    1e:03:73:71:c0:4e:19:ac:74:21:f5:c6:dc:2b:30:
                    2f:34:63:a5:3c:6f:1c:bc:53:1b:1f:23:c5:22:26:
                    f2:c5:19:56:57:ee:d3:05:bb:64:98:74:4f:c7:a2:
                    12:b6:3f:11:e0:b8:aa:2f:e5:c7:68:97:9b:d2:15:
                    cb:09:32:fb:f7:f1:33:da:4a:4a:9e:54:6d:a8:6d:
                    cd:51:f6:29:7c:31:55:b3:39:03:fb:75:5f:f4:5e:
                    f4:98:9c:72:df:fd:94:bf:60:a5:b2:67:00:33:de:
                    72:df:58:95:23:e9:e1:6f:a5:20:40:e5:f5:ec:d1:
                    56:2e:c4:a3:fc:d8:8d:82:39:65:2f:d3:e4:06:96:
                    17:20:03:0d:44:e9:93:13:b3:c7:35:e8:30:b1:12:
                    d7:1a:26:4c:5a:3f:f3:2e:5c:17:f1:98:d0:cb:4a:
                    35:24:b1:4d:81:16:48:cf:3e:d3:1a:ad:a7:51:7f:
                    c5:e2:c7:0e:ca:77:d4:8c:ab:e6:98:82:fd:55:27:
                    f0:dc:d5:11:8e:49:e3:d8:75:74:c7:e3:07:66:cf:
                    6a:b9
                Exponent: 65537 (0x10001)
        X509v3 extensions:
            X509v3 Basic Constraints: 
                CA:FALSE
            X509v3 Extended Key Usage: 
                TLS Web Client Authentication
            Netscape Comment: 
                OpenSSL Generated Certificate
            X509v3 Subject Key Identifier: 
                D8:20:5F:B3:E9:E4:29:5A:41:18:3D:A8:18:F6:B7:73:23:F5:0D:EE
            X509v3 Authority Key Identifier: 
                keyid:80:18:C4:71:71:53:02:25:50:91:58:D7:9C:2A:69:84:CE:27:7B:1B

            X509v3 CRL Distribution Points: 

                Full Name:
                  URI:http://192.168.21.89/rootcrl.pem

    Signature Algorithm: sha1WithRSAEncryption
         1b:e8:f9:24:3a:8b:1e:b9:23:f4:cd:c1:bc:6a:f8:b7:eb:af:
         07:46:7b:b6:56:c8:cc:51:7b:96:3b:2f:64:62:7a:d8:91:f9:
         13:d6:93:85:97:e4:c0:12:d2:0f:05:7d:ab:fa:5f:09:73:9d:
         ba:d7:dc:79:05:f3:df:61:6e:87:6a:a2:f4:72:76:0e:52:ac:
         d4:aa:c0:cf:9b:36:80:3f:69:86:df:ce:08:4a:c6:d2:0d:2d:
         70:b8:b9:34:6e:58:4f:d6:20:45:25:d5:72:b9:69:85:3a:cc:
         bf:b6:c2:73:b6:3d:0f:8d:61:7f:ea:f5:4d:57:36:4f:0b:d7:
         25:5e:ab:50:7c:81:e6:53:a2:4f:d9:08:91:3a:af:28:9d:2c:
         50:c7:ab:30:a2:46:8b:ad:27:15:79:37:61:f9:0b:52:a4:5c:
         54:3f:ec:c0:9e:2b:49:0c:65:5b:c6:fc:40:72:6f:d0:78:cf:
         ac:3b:fb:68:b9:1e:6f:a7:fa:32:c5:53:93:6a:38:fb:eb:5a:
         68:b5:00:4b:48:bc:9a:5c:14:dc:36:37:b7:03:ef:73:1b:4a:
         ea:32:66:0c:33:08:16:89:f5:a8:85:d5:5f:c0:51:14:82:83:
         18:d8:ab:b2:3a:65:6c:a2:0d:3e:e2:b0:1f:07:fd:03:ca:8c:
         b7:d6:b7:04
-----BEGIN CERTIFICATE-----
MIIEJTCCAw2gAwIBAgIBCjANBgkqhkiG9w0BAQUFADCBjDELMAkGA1UEBhMCQkEx
CzAJBgNVBAgTAlJTMRMwEQYDVQQHEwpCYW5qYSBMdWthMQwwCgYDVQQKEwNFVEYx
GjAYBgNVBAsUEUNBX01pcm9zbGF2TWFuZGljMREwDwYDVQQDEwhNaXJvc2xhdjEe
MBwGCSqGSIb3DQEJARYPbWlzb0BnbWFpbC5jb21cMB4XDTE5MTIyMDA5MDI1MloX
DTIwMDMyOTA5MDI1MlowWDEMMAoGA1UEChMDRVRGMRowGAYDVQQLFBFDQV9NaXJv
c2xhdk1hbmRpYzENMAsGA1UEAxMEbWlzbzEdMBsGCSqGSIb3DQEJARYObWlzb0Bn
bWFpbC5jb20wggEiMA0GCSqGSIb3DQEBAQUAA4IBDwAwggEKAoIBAQDM+xdTUhCA
tfbXwvsTgtcb3YCzACncDQkPqc/e7buV/DXSPQ4nD3OZ0PqVLh4Dc3HAThmsdCH1
xtwrMC80Y6U8bxy8UxsfI8UiJvLFGVZX7tMFu2SYdE/HohK2PxHguKov5cdol5vS
FcsJMvv38TPaSkqeVG2obc1R9il8MVWzOQP7dV/0XvSYnHLf/ZS/YKWyZwAz3nLf
WJUj6eFvpSBA5fXs0VYuxKP82I2COWUv0+QGlhcgAw1E6ZMTs8c16DCxEtcaJkxa
P/MuXBfxmNDLSjUksU2BFkjPPtMaradRf8Xixw7Kd9SMq+aYgv1VJ/Dc1RGOSePY
dXTH4wdmz2q5AgMBAAGjgcQwgcEwCQYDVR0TBAIwADATBgNVHSUEDDAKBggrBgEF
BQcDAjAsBglghkgBhvhCAQ0EHxYdT3BlblNTTCBHZW5lcmF0ZWQgQ2VydGlmaWNh
dGUwHQYDVR0OBBYEFNggX7Pp5ClaQRg9qBj2t3Mj9Q3uMB8GA1UdIwQYMBaAFIAY
xHFxUwIlUJFY15wqaYTOJ3sbMDEGA1UdHwQqMCgwJqAkoCKGIGh0dHA6Ly8xOTIu
MTY4LjIxLjg5L3Jvb3RjcmwucGVtMA0GCSqGSIb3DQEBBQUAA4IBAQAb6PkkOose
uSP0zcG8avi3668HRnu2VsjMUXuWOy9kYnrYkfkT1pOFl+TAEtIPBX2r+l8Jc526
19x5BfPfYW6HaqL0cnYOUqzUqsDPmzaAP2mG384ISsbSDS1wuLk0blhP1iBFJdVy
uWmFOsy/tsJztj0PjWF/6vVNVzZPC9clXqtQfIHmU6JP2QiROq8onSxQx6swokaL
rScVeTdh+QtSpFxUP+zAnitJDGVbxvxAcm/QeM+sO/touR5vp/oyxVOTajj761po
tQBLSLyaXBTcNje3A+9zG0rqMmYMMwgWifWohdVfwFEUgoMY2KuyOmVsog0+4rAf
B/0Dyoy31rcE
-----END CERTIFICATE-----
